target datalayout = "e-m:e-p270:32:32-p271:32:32-p272:64:64-i64:64-i128:128-f80:128-n8:16:32:64-S128"
target triple = "x86_64-pc-linux-gnu"

%"struct.open_spiel::GameType" = type <{ %"class.std::__cxx11::basic_string", %"class.std::__cxx11::basic_string", i32, i32, i32, i32, i32, i32, i32, i8, i8, i8, i8, %"class.std::map", i8, i8, [6 x i8] }>
%"class.std::__cxx11::basic_string" = type { %"struct.std::__cxx11::basic_string<char>::_Alloc_hider", i64, %union.anon }
%"struct.std::__cxx11::basic_string<char>::_Alloc_hider" = type { ptr }
%union.anon = type { i64, [8 x i8] }
%"class.std::map" = type { %"class.std::_Rb_tree" }
%"class.std::_Rb_tree" = type { %"struct.std::_Rb_tree<std::__cxx11::basic_string<char>, std::pair<const std::__cxx11::basic_string<char>, open_spiel::GameParameter>, std::_Select1st<std::pair<const std::__cxx11::basic_string<char>, open_spiel::GameParameter>>, std::less<std::__cxx11::basic_string<char>>>::_Rb_tree_impl" }
%"struct.std::_Rb_tree<std::__cxx11::basic_string<char>, std::pair<const std::__cxx11::basic_string<char>, open_spiel::GameParameter>, std::_Select1st<std::pair<const std::__cxx11::basic_string<char>, open_spiel::GameParameter>>, std::less<std::__cxx11::basic_string<char>>>::_Rb_tree_impl" = type { [8 x i8], %"struct.std::_Rb_tree_header" }
%"struct.std::_Rb_tree_header" = type { %"struct.std::_Rb_tree_node_base", i64 }
%"struct.std::_Rb_tree_node_base" = type { i32, ptr, ptr, ptr }
%"class.open_spiel::battleship::BattleshipGame" = type { %"class.open_spiel::Game", %"struct.open_spiel::battleship::BattleshipConfiguration" }
%"class.open_spiel::Game" = type { ptr, %"class.std::enable_shared_from_this", %"struct.open_spiel::GameType", %"class.std::map", %"class.std::map", %"class.absl::debian2::Mutex" }
%"class.std::enable_shared_from_this" = type { %"class.std::weak_ptr" }
%"class.std::weak_ptr" = type { %"class.std::__weak_ptr" }
%"class.std::__weak_ptr" = type { ptr, %"class.std::__weak_count" }
%"class.std::__weak_count" = type { ptr }
%"class.absl::debian2::Mutex" = type { %"struct.std::atomic" }
%"struct.std::atomic" = type { %"struct.std::__atomic_base" }
%"struct.std::__atomic_base" = type { i64 }
%"struct.open_spiel::battleship::BattleshipConfiguration" = type { i32, i32, %"class.std::vector.14", i32, i8, double }
%"class.std::vector.14" = type { %"struct.std::_Vector_base.15" }
%"struct.std::_Vector_base.15" = type { %"struct.std::_Vector_base<open_spiel::battleship::Ship, std::allocator<open_spiel::battleship::Ship>>::_Vector_impl" }
%"struct.std::_Vector_base<open_spiel::battleship::Ship, std::allocator<open_spiel::battleship::Ship>>::_Vector_impl" = type { %"struct.std::_Vector_base<open_spiel::battleship::Ship, std::allocator<open_spiel::battleship::Ship>>::_Vector_impl_data" }
%"struct.std::_Vector_base<open_spiel::battleship::Ship, std::allocator<open_spiel::battleship::Ship>>::_Vector_impl_data" = type { ptr, ptr, ptr }
%"class.absl::debian2::optional.98" = type { %"class.absl::debian2::optional_internal::optional_data.99" }
%"class.absl::debian2::optional_internal::optional_data.99" = type { %"class.absl::debian2::optional_internal::optional_data_base.100" }
%"class.absl::debian2::optional_internal::optional_data_base.100" = type { %"class.absl::debian2::optional_internal::optional_data_dtor_base.101" }
%"class.absl::debian2::optional_internal::optional_data_dtor_base.101" = type { i8, %union.anon.102 }
%union.anon.102 = type { double }
%"struct.absl::debian2::optional_internal::empty_struct" = type { i8 }
%"struct.absl::debian2::optional_internal::optional_data_dtor_base<double>::dummy_type" = type { [8 x %"struct.absl::debian2::optional_internal::empty_struct"] }

; Function Attrs: mustprogress nounwind uwtable
define linkonce_odr void @_ZN4absl7debian217optional_internal23optional_data_dtor_baseIdLb1EEC2Ev(ptr noundef nonnull align 8 dereferenceable(16) %0) unnamed_addr #5 comdat align 2 {
  %2 = alloca ptr, align 8
  store ptr %0, ptr %2, align 8
  %3 = load ptr, ptr %2, align 8
  %4 = getelementptr inbounds nuw %"class.absl::debian2::optional_internal::optional_data_dtor_base.101", ptr %3, i32 0, i32 0
  store i8 0, ptr %4, align 8
  %5 = getelementptr inbounds nuw %"class.absl::debian2::optional_internal::optional_data_dtor_base.101", ptr %3, i32 0, i32 1
  %6 = getelementptr inbounds nuw %"struct.absl::debian2::optional_internal::optional_data_dtor_base<double>::dummy_type", ptr %5, i32 0, i32 0
  %7 = getelementptr inbounds %"struct.absl::debian2::optional_internal::empty_struct", ptr %6, i64 8
  br label %8

8:                                                ; preds = %8, %1
  %9 = phi ptr [ %6, %1 ], [ %10, %8 ]
  %10 = getelementptr inbounds %"struct.absl::debian2::optional_internal::empty_struct", ptr %9, i64 1
  %11 = icmp eq ptr %10, %7
  br i1 %11, label %12, label %8

12:                                               ; preds = %8
  ret void
}

; Function Attrs: mustprogress nounwind uwtable
define linkonce_odr void @_ZN4absl7debian217optional_internal23optional_data_dtor_baseIdLb1EEC2IJdEEENS0_10in_place_tEDpOT_(ptr noundef nonnull align 8 dereferenceable(16) %0, ptr noundef nonnull align 8 dereferenceable(8) %1) unnamed_addr #5 comdat align 2 {
  %3 = alloca ptr, align 8
  %4 = alloca ptr, align 8
  store ptr %0, ptr %3, align 8
  store ptr %1, ptr %4, align 8
  %5 = load ptr, ptr %3, align 8
  %6 = getelementptr inbounds nuw %"class.absl::debian2::optional_internal::optional_data_dtor_base.101", ptr %5, i32 0, i32 0
  store i8 1, ptr %6, align 8
  %7 = getelementptr inbounds nuw %"class.absl::debian2::optional_internal::optional_data_dtor_base.101", ptr %5, i32 0, i32 1
  %8 = load ptr, ptr %4, align 8
  %9 = call noundef nonnull align 8 dereferenceable(8) ptr @_ZN4absl7debian27forwardIdEEOT_RNSt16remove_referenceIS2_E4typeE(ptr noundef nonnull align 8 dereferenceable(8) %8) #3
  %10 = load double, ptr %9, align 8
  store double %10, ptr %7, align 8
  ret void
}

; Function Attrs: mustprogress nounwind uwtable
define linkonce_odr void @_ZN4absl7debian217optional_internal18optional_data_baseIdEC2Ev(ptr noundef nonnull align 8 dereferenceable(16) %0) unnamed_addr #5 comdat align 2 {
  %2 = alloca ptr, align 8
  store ptr %0, ptr %2, align 8
  %3 = load ptr, ptr %2, align 8
  call void @_ZN4absl7debian217optional_internal23optional_data_dtor_baseIdLb1EEC2Ev(ptr noundef nonnull align 8 dereferenceable(16) %3) #3
  ret void
}

; Function Attrs: mustprogress uwtable
define linkonce_odr void @_ZN4absl7debian217optional_internal18optional_data_baseIdECI2NS1_23optional_data_dtor_baseIdLb1EEEIJdEEENS0_10in_place_tEDpOT_(ptr noundef nonnull align 8 dereferenceable(16) %0, ptr noundef nonnull align 8 dereferenceable(8) %1) unnamed_addr #4 comdat align 2 {
  %3 = alloca ptr, align 8
  %4 = alloca ptr, align 8
  store ptr %0, ptr %3, align 8
  store ptr %1, ptr %4, align 8
  %5 = load ptr, ptr %3, align 8
  %6 = load ptr, ptr %4, align 8
  call void @_ZN4absl7debian217optional_internal23optional_data_dtor_baseIdLb1EEC2IJdEEENS0_10in_place_tEDpOT_(ptr noundef nonnull align 8 dereferenceable(16) %5, ptr noundef nonnull align 8 dereferenceable(8) %6)
  ret void
}

; Function Attrs: mustprogress nounwind uwtable
define linkonce_odr void @_ZN4absl7debian217optional_internal13optional_dataIdLb1EEC2Ev(ptr noundef nonnull align 8 dereferenceable(16) %0) unnamed_addr #5 comdat align 2 {
  %2 = alloca ptr, align 8
  store ptr %0, ptr %2, align 8
  %3 = load ptr, ptr %2, align 8
  call void @_ZN4absl7debian217optional_internal18optional_data_baseIdEC2Ev(ptr noundef nonnull align 8 dereferenceable(16) %3) #3
  ret void
}

; Function Attrs: mustprogress uwtable
define linkonce_odr void @_ZN4absl7debian217optional_internal13optional_dataIdLb1EECI2NS1_23optional_data_dtor_baseIdLb1EEEIJdEEENS0_10in_place_tEDpOT_(ptr noundef nonnull align 8 dereferenceable(16) %0, ptr noundef nonnull align 8 dereferenceable(8) %1) unnamed_addr #4 comdat align 2 {
  %3 = alloca ptr, align 8
  %4 = alloca ptr, align 8
  store ptr %0, ptr %3, align 8
  store ptr %1, ptr %4, align 8
  %5 = load ptr, ptr %3, align 8
  %6 = load ptr, ptr %4, align 8
  call void @_ZN4absl7debian217optional_internal18optional_data_baseIdECI2NS1_23optional_data_dtor_baseIdLb1EEEIJdEEENS0_10in_place_tEDpOT_(ptr noundef nonnull align 8 dereferenceable(16) %5, ptr noundef nonnull align 8 dereferenceable(8) %6)
  ret void
}

; Function Attrs: mustprogress nounwind uwtable
define linkonce_odr noundef nonnull align 8 dereferenceable(8) ptr @_ZN4absl7debian27forwardIdEEOT_RNSt16remove_referenceIS2_E4typeE(ptr noundef nonnull align 8 dereferenceable(8) %0) #5 comdat {
  %2 = alloca ptr, align 8
  store ptr %0, ptr %2, align 8
  %3 = load ptr, ptr %2, align 8
  ret ptr %3
}

; Function Attrs: mustprogress nounwind uwtable
define linkonce_odr void @_ZN4absl7debian28optionalIdEC2ENS0_9nullopt_tE(ptr noundef nonnull align 8 dereferenceable(16) %0) unnamed_addr #5 comdat align 2 {
  %2 = alloca ptr, align 8
  store ptr %0, ptr %2, align 8
  %3 = load ptr, ptr %2, align 8
  call void @_ZN4absl7debian217optional_internal13optional_dataIdLb1EEC2Ev(ptr noundef nonnull align 8 dereferenceable(16) %3) #3
  ret void
}

; Function Attrs: mustprogress uwtable
define linkonce_odr void @_ZN4absl7debian28optionalIdEC2IdTnNSt9enable_ifIXsr4absl11conjunctionINS0_8negationISt7is_sameINS0_10in_place_tENSt5decayIT_E4typeEEEENS5_IS6_IS2_SB_EEESt14is_convertibleIOS9_dESt16is_constructibleIdJSH_EEEE5valueEbE4typeELb0EEESH_(ptr noundef nonnull align 8 dereferenceable(16) %0, ptr noundef nonnull align 8 dereferenceable(8) %1) unnamed_addr #4 comdat align 2 {
  %3 = alloca ptr, align 8
  %4 = alloca ptr, align 8
  store ptr %0, ptr %3, align 8
  store ptr %1, ptr %4, align 8
  %5 = load ptr, ptr %3, align 8
  %6 = load ptr, ptr %4, align 8
  %7 = call noundef nonnull align 8 dereferenceable(8) ptr @_ZN4absl7debian27forwardIdEEOT_RNSt16remove_referenceIS2_E4typeE(ptr noundef nonnull align 8 dereferenceable(8) %6) #3
  call void @_ZN4absl7debian217optional_internal13optional_dataIdLb1EECI2NS1_23optional_data_dtor_baseIdLb1EEEIJdEEENS0_10in_place_tEDpOT_(ptr noundef nonnull align 8 dereferenceable(16) %5, ptr noundef nonnull align 8 dereferenceable(8) %7)
  ret void
}

; Function Attrs: mustprogress nounwind uwtable
define linkonce_odr noundef double @_ZSt3absd(double noundef %0) #5 comdat {
  %2 = alloca double, align 8
  store double %0, ptr %2, align 8
  %3 = load double, ptr %2, align 8
  %4 = call double @llvm.fabs.f64(double %3)
  ret double %4
}

; Function Attrs: mustprogress uwtable
define { i8, double } @_ZNK10open_spiel10battleship14BattleshipGame10UtilitySumEv(ptr noundef nonnull align 8 dereferenceable(328) %0) unnamed_addr #4 align 2 {
  %2 = alloca %"class.absl::debian2::optional.98", align 8
  %3 = alloca ptr, align 8
  %4 = alloca double, align 8
  store ptr %0, ptr %3, align 8
  %5 = load ptr, ptr %3, align 8
  %6 = getelementptr inbounds nuw %"class.open_spiel::battleship::BattleshipGame", ptr %5, i32 0, i32 1
  %7 = getelementptr inbounds nuw %"struct.open_spiel::battleship::BattleshipConfiguration", ptr %6, i32 0, i32 5
  %8 = load double, ptr %7, align 8
  %9 = fsub double %8, 1.000000e+00
  %10 = call noundef double @_ZSt3absd(double noundef %9)
  %11 = fcmp olt double %10, 1.000000e-09
  br i1 %11, label %12, label %13

12:                                               ; preds = %1
  store double 0.000000e+00, ptr %4, align 8
  call void @_ZN4absl7debian28optionalIdEC2IdTnNSt9enable_ifIXsr4absl11conjunctionINS0_8negationISt7is_sameINS0_10in_place_tENSt5decayIT_E4typeEEEENS5_IS6_IS2_SB_EEESt14is_convertibleIOS9_dESt16is_constructibleIdJSH_EEEE5valueEbE4typeELb0EEESH_(ptr noundef nonnull align 8 dereferenceable(16) %2, ptr noundef nonnull align 8 dereferenceable(8) %4)
  br label %14

13:                                               ; preds = %1
  call void @_ZN4absl7debian28optionalIdEC2ENS0_9nullopt_tE(ptr noundef nonnull align 8 dereferenceable(16) %2) #3
  br label %14

14:                                               ; preds = %13, %12
  %15 = getelementptr inbounds nuw %"class.absl::debian2::optional.98", ptr %2, i32 0, i32 0
  %16 = getelementptr inbounds nuw %"class.absl::debian2::optional_internal::optional_data.99", ptr %15, i32 0, i32 0
  %17 = getelementptr inbounds nuw %"class.absl::debian2::optional_internal::optional_data_base.100", ptr %16, i32 0, i32 0
  %18 = load { i8, double }, ptr %17, align 8
  ret { i8, double } %18
}