; Function Attrs: mustprogress nofree norecurse nosync nounwind willreturn memory(argmem: read) uwtable
define { i8, double } @_ZNK10open_spiel10battleship14BattleshipGame10UtilitySumEv(ptr noundef nonnull readonly align 8 captures(none) dereferenceable(328) %0) unnamed_addr #11 align 2 {
  %2 = getelementptr inbounds nuw i8, ptr %0, i64 320
  %3 = load double, ptr %2, align 8
  %4 = fadd double %3, -1.000000e+00
  %5 = tail call noundef double @llvm.fabs.f64(double %4)
  %6 = fcmp olt double %5, 1.000000e-09
  %.sroa.0.0 = zext i1 %6 to i8
  %.fca.0.insert = insertvalue { i8, double } poison, i8 %.sroa.0.0, 0
  %.fca.1.insert = insertvalue { i8, double } %.fca.0.insert, double 0.000000e+00, 1
  ret { i8, double } %.fca.1.insert
}